target datalayout = "e-m:e-p270:32:32-p271:32:32-p272:64:64-i64:64-i128:128-f80:128-n8:16:32:64-S128"
target triple = "x86_64-pc-linux-gnu"

%struct.PHP_WHIRLPOOL_CTX = type { [8 x i64], [32 x i8], %struct.anon }
%struct.anon = type { i32, i32, [64 x i8] }

; Function Attrs: nounwind uwtable
define void @PHP_WHIRLPOOLFinal(ptr noundef %0, ptr noundef %1) #0 {
  %3 = alloca ptr, align 8
  %4 = alloca ptr, align 8
  %5 = alloca i32, align 4
  %6 = alloca ptr, align 8
  %7 = alloca ptr, align 8
  %8 = alloca i32, align 4
  %9 = alloca i32, align 4
  store ptr %0, ptr %3, align 8
  store ptr %1, ptr %4, align 8
  %10 = load ptr, ptr %4, align 8
  %11 = getelementptr inbounds %struct.PHP_WHIRLPOOL_CTX, ptr %10, i32 0, i32 2
  %12 = getelementptr inbounds %struct.anon, ptr %11, i32 0, i32 2
  %13 = getelementptr inbounds [64 x i8], ptr %12, i64 0, i64 0
  store ptr %13, ptr %6, align 8
  %14 = load ptr, ptr %4, align 8
  %15 = getelementptr inbounds %struct.PHP_WHIRLPOOL_CTX, ptr %14, i32 0, i32 1
  %16 = getelementptr inbounds [32 x i8], ptr %15, i64 0, i64 0
  store ptr %16, ptr %7, align 8
  %17 = load ptr, ptr %4, align 8
  %18 = getelementptr inbounds %struct.PHP_WHIRLPOOL_CTX, ptr %17, i32 0, i32 2
  %19 = getelementptr inbounds %struct.anon, ptr %18, i32 0, i32 1
  %20 = load i32, ptr %19, align 4
  store i32 %20, ptr %8, align 4
  %21 = load ptr, ptr %4, align 8
  %22 = getelementptr inbounds %struct.PHP_WHIRLPOOL_CTX, ptr %21, i32 0, i32 2
  %23 = getelementptr inbounds %struct.anon, ptr %22, i32 0, i32 0
  %24 = load i32, ptr %23, align 8
  store i32 %24, ptr %9, align 4
  %25 = load i32, ptr %8, align 4
  %26 = and i32 %25, 7
  %27 = lshr i32 128, %26
  %28 = load ptr, ptr %6, align 8
  %29 = load i32, ptr %9, align 4
  %30 = sext i32 %29 to i64
  %31 = getelementptr inbounds i8, ptr %28, i64 %30
  %32 = load i8, ptr %31, align 1
  %33 = zext i8 %32 to i32
  %34 = or i32 %33, %27
  %35 = trunc i32 %34 to i8
  store i8 %35, ptr %31, align 1
  %36 = load i32, ptr %9, align 4
  %37 = add nsw i32 %36, 1
  store i32 %37, ptr %9, align 4
  %38 = load i32, ptr %9, align 4
  %39 = icmp sgt i32 %38, 32
  br i1 %39, label %40, label %53

40:                                               ; preds = %2
  %41 = load i32, ptr %9, align 4
  %42 = icmp slt i32 %41, 64
  br i1 %42, label %43, label %51

43:                                               ; preds = %40
  %44 = load ptr, ptr %6, align 8
  %45 = load i32, ptr %9, align 4
  %46 = sext i32 %45 to i64
  %47 = getelementptr inbounds i8, ptr %44, i64 %46
  %48 = load i32, ptr %9, align 4
  %49 = sub nsw i32 64, %48
  %50 = sext i32 %49 to i64
  call void @llvm.memset.p0.i64(ptr align 1 %47, i8 0, i64 %50, i1 false)
  br label %51

51:                                               ; preds = %43, %40
  %52 = load ptr, ptr %4, align 8
  call void @WhirlpoolTransform(ptr noundef %52)
  store i32 0, ptr %9, align 4
  br label %53

53:                                               ; preds = %51, %2
  %54 = load i32, ptr %9, align 4
  %55 = icmp slt i32 %54, 32
  br i1 %55, label %56, label %64

56:                                               ; preds = %53
  %57 = load ptr, ptr %6, align 8
  %58 = load i32, ptr %9, align 4
  %59 = sext i32 %58 to i64
  %60 = getelementptr inbounds i8, ptr %57, i64 %59
  %61 = load i32, ptr %9, align 4
  %62 = sub nsw i32 32, %61
  %63 = sext i32 %62 to i64
  call void @llvm.memset.p0.i64(ptr align 1 %60, i8 0, i64 %63, i1 false)
  br label %64

64:                                               ; preds = %56, %53
  store i32 32, ptr %9, align 4
  %65 = load ptr, ptr %6, align 8
  %66 = getelementptr inbounds i8, ptr %65, i64 32
  %67 = load ptr, ptr %7, align 8
  call void @llvm.memcpy.p0.p0.i64(ptr align 1 %66, ptr align 1 %67, i64 32, i1 false)
  %68 = load ptr, ptr %4, align 8
  call void @WhirlpoolTransform(ptr noundef %68)
  store i32 0, ptr %5, align 4
  br label %69

69:                                               ; preds = %154, %64
  %70 = load i32, ptr %5, align 4
  %71 = icmp slt i32 %70, 8
  br i1 %71, label %72, label %157

72:                                               ; preds = %69
  %73 = load ptr, ptr %4, align 8
  %74 = getelementptr inbounds %struct.PHP_WHIRLPOOL_CTX, ptr %73, i32 0, i32 0
  %75 = load i32, ptr %5, align 4
  %76 = sext i32 %75 to i64
  %77 = getelementptr inbounds [8 x i64], ptr %74, i64 0, i64 %76
  %78 = load i64, ptr %77, align 8
  %79 = lshr i64 %78, 56
  %80 = trunc i64 %79 to i8
  %81 = load ptr, ptr %3, align 8
  %82 = getelementptr inbounds i8, ptr %81, i64 0
  store i8 %80, ptr %82, align 1
  %83 = load ptr, ptr %4, align 8
  %84 = getelementptr inbounds %struct.PHP_WHIRLPOOL_CTX, ptr %83, i32 0, i32 0
  %85 = load i32, ptr %5, align 4
  %86 = sext i32 %85 to i64
  %87 = getelementptr inbounds [8 x i64], ptr %84, i64 0, i64 %86
  %88 = load i64, ptr %87, align 8
  %89 = lshr i64 %88, 48
  %90 = trunc i64 %89 to i8
  %91 = load ptr, ptr %3, align 8
  %92 = getelementptr inbounds i8, ptr %91, i64 1
  store i8 %90, ptr %92, align 1
  %93 = load ptr, ptr %4, align 8
  %94 = getelementptr inbounds %struct.PHP_WHIRLPOOL_CTX, ptr %93, i32 0, i32 0
  %95 = load i32, ptr %5, align 4
  %96 = sext i32 %95 to i64
  %97 = getelementptr inbounds [8 x i64], ptr %94, i64 0, i64 %96
  %98 = load i64, ptr %97, align 8
  %99 = lshr i64 %98, 40
  %100 = trunc i64 %99 to i8
  %101 = load ptr, ptr %3, align 8
  %102 = getelementptr inbounds i8, ptr %101, i64 2
  store i8 %100, ptr %102, align 1
  %103 = load ptr, ptr %4, align 8
  %104 = getelementptr inbounds %struct.PHP_WHIRLPOOL_CTX, ptr %103, i32 0, i32 0
  %105 = load i32, ptr %5, align 4
  %106 = sext i32 %105 to i64
  %107 = getelementptr inbounds [8 x i64], ptr %104, i64 0, i64 %106
  %108 = load i64, ptr %107, align 8
  %109 = lshr i64 %108, 32
  %110 = trunc i64 %109 to i8
  %111 = load ptr, ptr %3, align 8
  %112 = getelementptr inbounds i8, ptr %111, i64 3
  store i8 %110, ptr %112, align 1
  %113 = load ptr, ptr %4, align 8
  %114 = getelementptr inbounds %struct.PHP_WHIRLPOOL_CTX, ptr %113, i32 0, i32 0
  %115 = load i32, ptr %5, align 4
  %116 = sext i32 %115 to i64
  %117 = getelementptr inbounds [8 x i64], ptr %114, i64 0, i64 %116
  %118 = load i64, ptr %117, align 8
  %119 = lshr i64 %118, 24
  %120 = trunc i64 %119 to i8
  %121 = load ptr, ptr %3, align 8
  %122 = getelementptr inbounds i8, ptr %121, i64 4
  store i8 %120, ptr %122, align 1
  %123 = load ptr, ptr %4, align 8
  %124 = getelementptr inbounds %struct.PHP_WHIRLPOOL_CTX, ptr %123, i32 0, i32 0
  %125 = load i32, ptr %5, align 4
  %126 = sext i32 %125 to i64
  %127 = getelementptr inbounds [8 x i64], ptr %124, i64 0, i64 %126
  %128 = load i64, ptr %127, align 8
  %129 = lshr i64 %128, 16
  %130 = trunc i64 %129 to i8
  %131 = load ptr, ptr %3, align 8
  %132 = getelementptr inbounds i8, ptr %131, i64 5
  store i8 %130, ptr %132, align 1
  %133 = load ptr, ptr %4, align 8
  %134 = getelementptr inbounds %struct.PHP_WHIRLPOOL_CTX, ptr %133, i32 0, i32 0
  %135 = load i32, ptr %5, align 4
  %136 = sext i32 %135 to i64
  %137 = getelementptr inbounds [8 x i64], ptr %134, i64 0, i64 %136
  %138 = load i64, ptr %137, align 8
  %139 = lshr i64 %138, 8
  %140 = trunc i64 %139 to i8
  %141 = load ptr, ptr %3, align 8
  %142 = getelementptr inbounds i8, ptr %141, i64 6
  store i8 %140, ptr %142, align 1
  %143 = load ptr, ptr %4, align 8
  %144 = getelementptr inbounds %struct.PHP_WHIRLPOOL_CTX, ptr %143, i32 0, i32 0
  %145 = load i32, ptr %5, align 4
  %146 = sext i32 %145 to i64
  %147 = getelementptr inbounds [8 x i64], ptr %144, i64 0, i64 %146
  %148 = load i64, ptr %147, align 8
  %149 = trunc i64 %148 to i8
  %150 = load ptr, ptr %3, align 8
  %151 = getelementptr inbounds i8, ptr %150, i64 7
  store i8 %149, ptr %151, align 1
  %152 = load ptr, ptr %3, align 8
  %153 = getelementptr inbounds i8, ptr %152, i64 8
  store ptr %153, ptr %3, align 8
  br label %154

154:                                              ; preds = %72
  %155 = load i32, ptr %5, align 4
  %156 = add nsw i32 %155, 1
  store i32 %156, ptr %5, align 4
  br label %69

157:                                              ; preds = %69
  %158 = load ptr, ptr %4, align 8
  call void @explicit_bzero(ptr noundef %158, i64 noundef 168) #5
  ret void
}