; Function Attrs: nounwind uwtable
define void @PHP_WHIRLPOOLFinal(ptr nocapture noundef writeonly %0, ptr noundef %1) #2 {
  %3 = getelementptr inbounds i8, ptr %1, i64 96
  %4 = getelementptr inbounds i8, ptr %1, i64 104
  %5 = getelementptr inbounds i8, ptr %1, i64 64
  %6 = getelementptr inbounds i8, ptr %1, i64 100
  %7 = load i32, ptr %6, align 4
  %8 = load i32, ptr %3, align 8
  %9 = and i32 %7, 7
  %10 = lshr exact i32 128, %9
  %11 = sext i32 %8 to i64
  %12 = getelementptr inbounds i8, ptr %4, i64 %11
  %13 = load i8, ptr %12, align 1
  %14 = trunc i32 %10 to i8
  %15 = or i8 %13, %14
  store i8 %15, ptr %12, align 1
  %16 = add nsw i32 %8, 1
  %17 = icmp sgt i32 %8, 31
  br i1 %17, label %18, label %25

18:                                               ; preds = %2
  %19 = icmp ult i32 %8, 63
  br i1 %19, label %20, label %.thread

20:                                               ; preds = %18
  %21 = zext nneg i32 %16 to i64
  %22 = getelementptr inbounds i8, ptr %4, i64 %21
  %23 = xor i32 %8, 63
  %24 = zext nneg i32 %23 to i64
  tail call void @llvm.memset.p0.i64(ptr nonnull align 1 %22, i8 0, i64 %24, i1 false)
  br label %.thread

.thread:                                          ; preds = %18, %20
  tail call fastcc void @WhirlpoolTransform(ptr noundef nonnull %1)
  br label %26

25:                                               ; preds = %2
  %.not = icmp eq i32 %8, 31
  br i1 %.not, label %31, label %26

26:                                               ; preds = %.thread, %25
  %.052 = phi i32 [ 0, %.thread ], [ %16, %25 ]
  %27 = sext i32 %.052 to i64
  %28 = getelementptr inbounds i8, ptr %4, i64 %27
  %29 = sub nsw i32 32, %.052
  %30 = zext nneg i32 %29 to i64
  tail call void @llvm.memset.p0.i64(ptr nonnull align 1 %28, i8 0, i64 %30, i1 false)
  br label %31

31:                                               ; preds = %26, %25
  %32 = getelementptr inbounds i8, ptr %1, i64 136
  tail call void @llvm.memcpy.p0.p0.i64(ptr noundef nonnull align 1 dereferenceable(32) %32, ptr noundef nonnull align 1 dereferenceable(32) %5, i64 32, i1 false)
  tail call fastcc void @WhirlpoolTransform(ptr noundef nonnull %1)
  br label %33

33:                                               ; preds = %31, %33
  %indvars.iv = phi i64 [ 0, %31 ], [ %indvars.iv.next, %33 ]
  %.04854 = phi ptr [ %0, %31 ], [ %65, %33 ]
  %34 = getelementptr inbounds [8 x i64], ptr %1, i64 0, i64 %indvars.iv
  %35 = load i64, ptr %34, align 8
  %36 = lshr i64 %35, 56
  %37 = trunc i64 %36 to i8
  store i8 %37, ptr %.04854, align 1
  %38 = load i64, ptr %34, align 8
  %39 = lshr i64 %38, 48
  %40 = trunc i64 %39 to i8
  %41 = getelementptr inbounds i8, ptr %.04854, i64 1
  store i8 %40, ptr %41, align 1
  %42 = load i64, ptr %34, align 8
  %43 = lshr i64 %42, 40
  %44 = trunc i64 %43 to i8
  %45 = getelementptr inbounds i8, ptr %.04854, i64 2
  store i8 %44, ptr %45, align 1
  %46 = load i64, ptr %34, align 8
  %47 = lshr i64 %46, 32
  %48 = trunc i64 %47 to i8
  %49 = getelementptr inbounds i8, ptr %.04854, i64 3
  store i8 %48, ptr %49, align 1
  %50 = load i64, ptr %34, align 8
  %51 = lshr i64 %50, 24
  %52 = trunc i64 %51 to i8
  %53 = getelementptr inbounds i8, ptr %.04854, i64 4
  store i8 %52, ptr %53, align 1
  %54 = load i64, ptr %34, align 8
  %55 = lshr i64 %54, 16
  %56 = trunc i64 %55 to i8
  %57 = getelementptr inbounds i8, ptr %.04854, i64 5
  store i8 %56, ptr %57, align 1
  %58 = load i64, ptr %34, align 8
  %59 = lshr i64 %58, 8
  %60 = trunc i64 %59 to i8
  %61 = getelementptr inbounds i8, ptr %.04854, i64 6
  store i8 %60, ptr %61, align 1
  %62 = load i64, ptr %34, align 8
  %63 = trunc i64 %62 to i8
  %64 = getelementptr inbounds i8, ptr %.04854, i64 7
  store i8 %63, ptr %64, align 1
  %65 = getelementptr inbounds i8, ptr %.04854, i64 8
  %indvars.iv.next = add nuw nsw i64 %indvars.iv, 1
  %exitcond.not = icmp eq i64 %indvars.iv.next, 8
  br i1 %exitcond.not, label %66, label %33

66:                                               ; preds = %33
  tail call void @explicit_bzero(ptr noundef nonnull %1, i64 noundef 168) #6
  ret void
}